target datalayout = "e-m:e-p270:32:32-p271:32:32-p272:64:64-i64:64-i128:128-f80:128-n8:16:32:64-S128"
target triple = "x86_64-pc-linux-gnu"

%struct.VkComponentMapping = type { i32, i32, i32, i32 }
%struct.SDL_AtomicInt = type { i32 }
%struct.VulkanTexture = type { ptr, i32, ptr, ptr, ptr, %struct.VkComponentMapping, i32, i32, i32, i32, ptr, i8, %struct.SDL_AtomicInt }
%struct.VulkanCommandBuffer = type { %struct.CommandBufferCommonHeader, ptr, ptr, ptr, ptr, i32, i32, ptr, i32, i32, ptr, i32, i32, ptr, ptr, [4 x ptr], i32, [4 x ptr], i32, ptr, %struct.VkViewport, %struct.VkRect2D, [4 x float], i8, ptr, i8, i8, i8, i8, i8, i8, i8, i8, i8, i8, ptr, ptr, ptr, ptr, ptr, ptr, ptr, [16 x ptr], [16 x i64], i32, i8, [16 x ptr], [16 x ptr], [8 x ptr], [8 x ptr], [16 x ptr], [16 x ptr], [8 x ptr], [8 x ptr], [8 x ptr], i32, [8 x ptr], [16 x ptr], [16 x ptr], [8 x ptr], [8 x ptr], [4 x ptr], [4 x ptr], [4 x ptr], ptr, i32, i32, ptr, i32, i32, ptr, i32, i32, ptr, i32, i32, ptr, i32, i32, ptr, i32, i32, ptr, i32, i32, ptr, i8, i8 }
%struct.CommandBufferCommonHeader = type { ptr, %struct.RenderPass, i8, %struct.Pass, i8, %struct.Pass, i8, i8, i8 }
%struct.RenderPass = type { ptr, i8, [4 x ptr], i32, ptr }
%struct.Pass = type { ptr, i8 }
%struct.VkViewport = type { float, float, float, float, float, float }
%struct.VkRect2D = type { %struct.VkOffset2D, %struct.VkExtent2D }
%struct.VkOffset2D = type { i32, i32 }
%struct.VkExtent2D = type { i32, i32 }
%struct.VulkanTextureSubresource = type { ptr, i32, i32, ptr, ptr, ptr }

; Function Attrs: nounwind uwtable
define internal void @VULKAN_INTERNAL_TextureTransitionToDefaultUsage(ptr noundef %0, ptr noundef %1, i32 noundef %2, ptr noundef %3) #0 {
  %5 = alloca ptr, align 8
  %6 = alloca ptr, align 8
  %7 = alloca i32, align 4
  %8 = alloca ptr, align 8
  %9 = alloca i32, align 4
  store ptr %0, ptr %5, align 8
  store ptr %1, ptr %6, align 8
  store i32 %2, ptr %7, align 4
  store ptr %3, ptr %8, align 8
  call void @llvm.lifetime.start.p0(i64 4, ptr %9) #9
  store i32 0, ptr %9, align 4
  br label %10

10:                                               ; preds = %27, %4
  %11 = load i32, ptr %9, align 4
  %12 = load ptr, ptr %8, align 8
  %13 = getelementptr inbounds nuw %struct.VulkanTexture, ptr %12, i32 0, i32 9
  %14 = load i32, ptr %13, align 4
  %15 = icmp ult i32 %11, %14
  br i1 %15, label %17, label %16

16:                                               ; preds = %10
  call void @llvm.lifetime.end.p0(i64 4, ptr %9) #9
  br label %30

17:                                               ; preds = %10
  %18 = load ptr, ptr %5, align 8
  %19 = load ptr, ptr %6, align 8
  %20 = load i32, ptr %7, align 4
  %21 = load ptr, ptr %8, align 8
  %22 = getelementptr inbounds nuw %struct.VulkanTexture, ptr %21, i32 0, i32 10
  %23 = load ptr, ptr %22, align 8
  %24 = load i32, ptr %9, align 4
  %25 = zext i32 %24 to i64
  %26 = getelementptr inbounds nuw %struct.VulkanTextureSubresource, ptr %23, i64 %25
  call void @VULKAN_INTERNAL_TextureSubresourceTransitionToDefaultUsage(ptr noundef %18, ptr noundef %19, i32 noundef %20, ptr noundef %26)
  br label %27

27:                                               ; preds = %17
  %28 = load i32, ptr %9, align 4
  %29 = add i32 %28, 1
  store i32 %29, ptr %9, align 4
  br label %10, !llvm.loop !100

30:                                               ; preds = %16
  ret void
}

; Function Attrs: nounwind uwtable
define internal void @VULKAN_EndComputePass(ptr noundef %0) #0 {
  %2 = alloca ptr, align 8
  %3 = alloca ptr, align 8
  %4 = alloca i32, align 4
  store ptr %0, ptr %2, align 8
  call void @llvm.lifetime.start.p0(i64 8, ptr %3) #9
  %5 = load ptr, ptr %2, align 8
  store ptr %5, ptr %3, align 8
  call void @llvm.lifetime.start.p0(i64 4, ptr %4) #9
  store i32 0, ptr %4, align 4
  br label %6

6:                                                ; preds = %28, %1
  %7 = load i32, ptr %4, align 4
  %8 = load ptr, ptr %3, align 8
  %9 = getelementptr inbounds nuw %struct.VulkanCommandBuffer, ptr %8, i32 0, i32 55
  %10 = load i32, ptr %9, align 8
  %11 = icmp ult i32 %7, %10
  br i1 %11, label %12, label %31

12:                                               ; preds = %6
  %13 = load ptr, ptr %3, align 8
  %14 = getelementptr inbounds nuw %struct.VulkanCommandBuffer, ptr %13, i32 0, i32 1
  %15 = load ptr, ptr %14, align 8
  %16 = load ptr, ptr %3, align 8
  %17 = load ptr, ptr %3, align 8
  %18 = getelementptr inbounds nuw %struct.VulkanCommandBuffer, ptr %17, i32 0, i32 54
  %19 = load i32, ptr %4, align 4
  %20 = zext i32 %19 to i64
  %21 = getelementptr inbounds nuw [8 x ptr], ptr %18, i64 0, i64 %20
  %22 = load ptr, ptr %21, align 8
  call void @VULKAN_INTERNAL_TextureSubresourceTransitionToDefaultUsage(ptr noundef %15, ptr noundef %16, i32 noundef 6, ptr noundef %22)
  %23 = load ptr, ptr %3, align 8
  %24 = getelementptr inbounds nuw %struct.VulkanCommandBuffer, ptr %23, i32 0, i32 54
  %25 = load i32, ptr %4, align 4
  %26 = zext i32 %25 to i64
  %27 = getelementptr inbounds nuw [8 x ptr], ptr %24, i64 0, i64 %26
  store ptr null, ptr %27, align 8
  br label %28

28:                                               ; preds = %12
  %29 = load i32, ptr %4, align 4
  %30 = add i32 %29, 1
  store i32 %30, ptr %4, align 4
  br label %6, !llvm.loop !50

31:                                               ; preds = %6
  %32 = load ptr, ptr %3, align 8
  %33 = getelementptr inbounds nuw %struct.VulkanCommandBuffer, ptr %32, i32 0, i32 55
  store i32 0, ptr %33, align 8
  store i32 0, ptr %4, align 4
  br label %34

34:                                               ; preds = %62, %31
  %35 = load i32, ptr %4, align 4
  %36 = icmp ult i32 %35, 8
  br i1 %36, label %37, label %65

37:                                               ; preds = %34
  %38 = load ptr, ptr %3, align 8
  %39 = getelementptr inbounds nuw %struct.VulkanCommandBuffer, ptr %38, i32 0, i32 56
  %40 = load i32, ptr %4, align 4
  %41 = zext i32 %40 to i64
  %42 = getelementptr inbounds nuw [8 x ptr], ptr %39, i64 0, i64 %41
  %43 = load ptr, ptr %42, align 8
  %44 = icmp ne ptr %43, null
  br i1 %44, label %45, label %61

45:                                               ; preds = %37
  %46 = load ptr, ptr %3, align 8
  %47 = getelementptr inbounds nuw %struct.VulkanCommandBuffer, ptr %46, i32 0, i32 1
  %48 = load ptr, ptr %47, align 8
  %49 = load ptr, ptr %3, align 8
  %50 = load ptr, ptr %3, align 8
  %51 = getelementptr inbounds nuw %struct.VulkanCommandBuffer, ptr %50, i32 0, i32 56
  %52 = load i32, ptr %4, align 4
  %53 = zext i32 %52 to i64
  %54 = getelementptr inbounds nuw [8 x ptr], ptr %51, i64 0, i64 %53
  %55 = load ptr, ptr %54, align 8
  call void @VULKAN_INTERNAL_BufferTransitionToDefaultUsage(ptr noundef %48, ptr noundef %49, i32 noundef 7, ptr noundef %55)
  %56 = load ptr, ptr %3, align 8
  %57 = getelementptr inbounds nuw %struct.VulkanCommandBuffer, ptr %56, i32 0, i32 56
  %58 = load i32, ptr %4, align 4
  %59 = zext i32 %58 to i64
  %60 = getelementptr inbounds nuw [8 x ptr], ptr %57, i64 0, i64 %59
  store ptr null, ptr %60, align 8
  br label %61

61:                                               ; preds = %45, %37
  br label %62

62:                                               ; preds = %61
  %63 = load i32, ptr %4, align 4
  %64 = add i32 %63, 1
  store i32 %64, ptr %4, align 4
  br label %34, !llvm.loop !51

65:                                               ; preds = %34
  store i32 0, ptr %4, align 4
  br label %66

66:                                               ; preds = %94, %65
  %67 = load i32, ptr %4, align 4
  %68 = icmp ult i32 %67, 8
  br i1 %68, label %69, label %97

69:                                               ; preds = %66
  %70 = load ptr, ptr %3, align 8
  %71 = getelementptr inbounds nuw %struct.VulkanCommandBuffer, ptr %70, i32 0, i32 59
  %72 = load i32, ptr %4, align 4
  %73 = zext i32 %72 to i64
  %74 = getelementptr inbounds nuw [8 x ptr], ptr %71, i64 0, i64 %73
  %75 = load ptr, ptr %74, align 8
  %76 = icmp ne ptr %75, null
  br i1 %76, label %77, label %93

77:                                               ; preds = %69
  %78 = load ptr, ptr %3, align 8
  %79 = getelementptr inbounds nuw %struct.VulkanCommandBuffer, ptr %78, i32 0, i32 1
  %80 = load ptr, ptr %79, align 8
  %81 = load ptr, ptr %3, align 8
  %82 = load ptr, ptr %3, align 8
  %83 = getelementptr inbounds nuw %struct.VulkanCommandBuffer, ptr %82, i32 0, i32 59
  %84 = load i32, ptr %4, align 4
  %85 = zext i32 %84 to i64
  %86 = getelementptr inbounds nuw [8 x ptr], ptr %83, i64 0, i64 %85
  %87 = load ptr, ptr %86, align 8
  call void @VULKAN_INTERNAL_TextureTransitionToDefaultUsage(ptr noundef %80, ptr noundef %81, i32 noundef 5, ptr noundef %87)
  %88 = load ptr, ptr %3, align 8
  %89 = getelementptr inbounds nuw %struct.VulkanCommandBuffer, ptr %88, i32 0, i32 59
  %90 = load i32, ptr %4, align 4
  %91 = zext i32 %90 to i64
  %92 = getelementptr inbounds nuw [8 x ptr], ptr %89, i64 0, i64 %91
  store ptr null, ptr %92, align 8
  br label %93

93:                                               ; preds = %77, %69
  br label %94

94:                                               ; preds = %93
  %95 = load i32, ptr %4, align 4
  %96 = add i32 %95, 1
  store i32 %96, ptr %4, align 4
  br label %66, !llvm.loop !52

97:                                               ; preds = %66
  store i32 0, ptr %4, align 4
  br label %98

98:                                               ; preds = %126, %97
  %99 = load i32, ptr %4, align 4
  %100 = icmp ult i32 %99, 8
  br i1 %100, label %101, label %129

101:                                              ; preds = %98
  %102 = load ptr, ptr %3, align 8
  %103 = getelementptr inbounds nuw %struct.VulkanCommandBuffer, ptr %102, i32 0, i32 60
  %104 = load i32, ptr %4, align 4
  %105 = zext i32 %104 to i64
  %106 = getelementptr inbounds nuw [8 x ptr], ptr %103, i64 0, i64 %105
  %107 = load ptr, ptr %106, align 8
  %108 = icmp ne ptr %107, null
  br i1 %108, label %109, label %125

109:                                              ; preds = %101
  %110 = load ptr, ptr %3, align 8
  %111 = getelementptr inbounds nuw %struct.VulkanCommandBuffer, ptr %110, i32 0, i32 1
  %112 = load ptr, ptr %111, align 8
  %113 = load ptr, ptr %3, align 8
  %114 = load ptr, ptr %3, align 8
  %115 = getelementptr inbounds nuw %struct.VulkanCommandBuffer, ptr %114, i32 0, i32 60
  %116 = load i32, ptr %4, align 4
  %117 = zext i32 %116 to i64
  %118 = getelementptr inbounds nuw [8 x ptr], ptr %115, i64 0, i64 %117
  %119 = load ptr, ptr %118, align 8
  call void @VULKAN_INTERNAL_BufferTransitionToDefaultUsage(ptr noundef %112, ptr noundef %113, i32 noundef 6, ptr noundef %119)
  %120 = load ptr, ptr %3, align 8
  %121 = getelementptr inbounds nuw %struct.VulkanCommandBuffer, ptr %120, i32 0, i32 60
  %122 = load i32, ptr %4, align 4
  %123 = zext i32 %122 to i64
  %124 = getelementptr inbounds nuw [8 x ptr], ptr %121, i64 0, i64 %123
  store ptr null, ptr %124, align 8
  br label %125

125:                                              ; preds = %109, %101
  br label %126

126:                                              ; preds = %125
  %127 = load i32, ptr %4, align 4
  %128 = add i32 %127, 1
  store i32 %128, ptr %4, align 4
  br label %98, !llvm.loop !53

129:                                              ; preds = %98
  %130 = load ptr, ptr %3, align 8
  %131 = getelementptr inbounds nuw %struct.VulkanCommandBuffer, ptr %130, i32 0, i32 57
  %132 = getelementptr inbounds [16 x ptr], ptr %131, i64 0, i64 0
  call void @llvm.memset.p0.i64(ptr align 8 %132, i8 0, i64 128, i1 false)
  %133 = load ptr, ptr %3, align 8
  %134 = getelementptr inbounds nuw %struct.VulkanCommandBuffer, ptr %133, i32 0, i32 58
  %135 = getelementptr inbounds [16 x ptr], ptr %134, i64 0, i64 0
  call void @llvm.memset.p0.i64(ptr align 8 %135, i8 0, i64 128, i1 false)
  %136 = load ptr, ptr %3, align 8
  %137 = getelementptr inbounds nuw %struct.VulkanCommandBuffer, ptr %136, i32 0, i32 13
  store ptr null, ptr %137, align 8
  %138 = load ptr, ptr %3, align 8
  %139 = getelementptr inbounds nuw %struct.VulkanCommandBuffer, ptr %138, i32 0, i32 39
  store ptr null, ptr %139, align 8
  %140 = load ptr, ptr %3, align 8
  %141 = getelementptr inbounds nuw %struct.VulkanCommandBuffer, ptr %140, i32 0, i32 40
  store ptr null, ptr %141, align 8
  %142 = load ptr, ptr %3, align 8
  %143 = getelementptr inbounds nuw %struct.VulkanCommandBuffer, ptr %142, i32 0, i32 41
  store ptr null, ptr %143, align 8
  call void @llvm.lifetime.end.p0(i64 4, ptr %4) #9
  call void @llvm.lifetime.end.p0(i64 8, ptr %3) #9
  ret void
}