; Function Attrs: nounwind uwtable
define internal void @VULKAN_EndComputePass(ptr noundef captures(none) %0) #0 {
  %2 = alloca %struct.VkImageMemoryBarrier, align 8
  %3 = getelementptr inbounds nuw i8, ptr %0, i64 1544
  %4 = load i32, ptr %3, align 8
  %.not56 = icmp eq i32 %4, 0
  br i1 %.not56, label %._crit_edge, label %.lr.ph

.lr.ph:                                           ; preds = %1
  %5 = getelementptr inbounds nuw i8, ptr %0, i64 128
  %6 = getelementptr inbounds nuw i8, ptr %0, i64 1480
  br label %7

7:                                                ; preds = %.lr.ph, %7
  %indvars.iv = phi i64 [ 0, %.lr.ph ], [ %indvars.iv.next, %7 ]
  %8 = load ptr, ptr %5, align 8
  %9 = getelementptr inbounds nuw [8 x ptr], ptr %6, i64 0, i64 %indvars.iv
  %10 = load ptr, ptr %9, align 8
  tail call fastcc void @VULKAN_INTERNAL_TextureSubresourceTransitionToDefaultUsage(ptr noundef %8, ptr noundef nonnull %0, i32 noundef 6, ptr noundef %10)
  store ptr null, ptr %9, align 8
  %indvars.iv.next = add nuw nsw i64 %indvars.iv, 1
  %11 = load i32, ptr %3, align 8
  %12 = zext i32 %11 to i64
  %13 = icmp samesign ult i64 %indvars.iv.next, %12
  br i1 %13, label %7, label %._crit_edge, !llvm.loop !67

._crit_edge:                                      ; preds = %7, %1
  store i32 0, ptr %3, align 8
  %14 = getelementptr inbounds nuw i8, ptr %0, i64 1552
  %15 = getelementptr inbounds nuw i8, ptr %0, i64 128
  br label %31

.preheader51:                                     ; preds = %36
  %16 = getelementptr inbounds nuw i8, ptr %0, i64 1872
  %17 = getelementptr inbounds nuw i8, ptr %2, i64 8
  %18 = getelementptr inbounds nuw i8, ptr %2, i64 16
  %19 = getelementptr inbounds nuw i8, ptr %2, i64 24
  %20 = getelementptr inbounds nuw i8, ptr %2, i64 32
  %21 = getelementptr inbounds nuw i8, ptr %2, i64 36
  %22 = getelementptr inbounds nuw i8, ptr %2, i64 40
  %23 = getelementptr inbounds nuw i8, ptr %2, i64 48
  %24 = getelementptr inbounds nuw i8, ptr %2, i64 60
  %25 = getelementptr inbounds nuw i8, ptr %2, i64 64
  %26 = getelementptr inbounds nuw i8, ptr %2, i64 52
  %27 = getelementptr inbounds nuw i8, ptr %2, i64 56
  %28 = getelementptr inbounds nuw i8, ptr %2, i64 28
  %29 = getelementptr inbounds nuw i8, ptr %2, i64 20
  %30 = getelementptr inbounds nuw i8, ptr %0, i64 136
  br label %38

31:                                               ; preds = %._crit_edge, %36
  %indvars.iv58 = phi i64 [ 0, %._crit_edge ], [ %indvars.iv.next59, %36 ]
  %32 = getelementptr inbounds nuw [8 x ptr], ptr %14, i64 0, i64 %indvars.iv58
  %33 = load ptr, ptr %32, align 8
  %.not50 = icmp eq ptr %33, null
  br i1 %.not50, label %36, label %34

34:                                               ; preds = %31
  %35 = load ptr, ptr %15, align 8
  tail call fastcc void @VULKAN_INTERNAL_BufferTransitionToDefaultUsage(ptr noundef %35, ptr noundef nonnull %0, i32 noundef 7, ptr noundef nonnull %33)
  store ptr null, ptr %32, align 8
  br label %36

36:                                               ; preds = %31, %34
  %indvars.iv.next59 = add nuw nsw i64 %indvars.iv58, 1
  %exitcond.not = icmp eq i64 %indvars.iv.next59, 8
  br i1 %exitcond.not, label %.preheader51, label %31, !llvm.loop !68

.preheader:                                       ; preds = %78
  %37 = getelementptr inbounds nuw i8, ptr %0, i64 1936
  br label %79

38:                                               ; preds = %.preheader51, %78
  %indvars.iv61 = phi i64 [ 0, %.preheader51 ], [ %indvars.iv.next62, %78 ]
  %39 = getelementptr inbounds nuw [8 x ptr], ptr %16, i64 0, i64 %indvars.iv61
  %40 = load ptr, ptr %39, align 8
  %.not49 = icmp eq ptr %40, null
  br i1 %.not49, label %78, label %41

41:                                               ; preds = %38
  %42 = getelementptr inbounds nuw i8, ptr %40, i64 68
  %43 = load i32, ptr %42, align 4
  %.not.i = icmp eq i32 %43, 0
  br i1 %.not.i, label %VULKAN_INTERNAL_TextureTransitionToDefaultUsage.exit, label %.lr.ph.i

.lr.ph.i:                                         ; preds = %41
  %44 = load ptr, ptr %15, align 8
  %45 = getelementptr inbounds nuw i8, ptr %40, i64 72
  %46 = getelementptr inbounds nuw i8, ptr %44, i64 2952
  br label %47

47:                                               ; preds = %VULKAN_INTERNAL_DefaultTextureUsageMode.exit.i, %.lr.ph.i
  %indvars.iv.i = phi i64 [ 0, %.lr.ph.i ], [ %indvars.iv.next.i, %VULKAN_INTERNAL_DefaultTextureUsageMode.exit.i ]
  %48 = load ptr, ptr %45, align 8
  %49 = getelementptr inbounds nuw %struct.VulkanTextureSubresource, ptr %48, i64 %indvars.iv.i
  %50 = load ptr, ptr %49, align 8
  %51 = getelementptr i8, ptr %50, i64 64
  %.val.i = load i32, ptr %51, align 8
  %52 = and i32 %.val.i, 1
  %.not.i.i = icmp eq i32 %52, 0
  br i1 %.not.i.i, label %53, label %VULKAN_INTERNAL_DefaultTextureUsageMode.exit.i

53:                                               ; preds = %47
  %54 = and i32 %.val.i, 8
  %.not7.i.i = icmp eq i32 %54, 0
  br i1 %.not7.i.i, label %55, label %VULKAN_INTERNAL_DefaultTextureUsageMode.exit.i

55:                                               ; preds = %53
  %56 = and i32 %.val.i, 2
  %.not8.i.i = icmp eq i32 %56, 0
  br i1 %.not8.i.i, label %57, label %VULKAN_INTERNAL_DefaultTextureUsageMode.exit.i

57:                                               ; preds = %55
  %58 = and i32 %.val.i, 4
  %.not9.i.i = icmp eq i32 %58, 0
  br i1 %.not9.i.i, label %59, label %VULKAN_INTERNAL_DefaultTextureUsageMode.exit.i

59:                                               ; preds = %57
  %60 = and i32 %.val.i, 16
  %.not10.i.i = icmp eq i32 %60, 0
  br i1 %.not10.i.i, label %61, label %VULKAN_INTERNAL_DefaultTextureUsageMode.exit.i

61:                                               ; preds = %59
  %62 = and i32 %.val.i, 96
  %or.cond.i.i = icmp eq i32 %62, 0
  br i1 %or.cond.i.i, label %63, label %VULKAN_INTERNAL_DefaultTextureUsageMode.exit.i

63:                                               ; preds = %61
  call void (i32, ptr, ...) @SDL_LogError_REAL(i32 noundef 9, ptr noundef nonnull @.str.204) #13
  %.pre.i = load ptr, ptr %49, align 8
  br label %VULKAN_INTERNAL_DefaultTextureUsageMode.exit.i

VULKAN_INTERNAL_DefaultTextureUsageMode.exit.i:   ; preds = %63, %61, %59, %57, %55, %53, %47
  %64 = phi ptr [ %.pre.i, %63 ], [ %50, %47 ], [ %50, %53 ], [ %50, %55 ], [ %50, %57 ], [ %50, %59 ], [ %50, %61 ]
  %.0.i.i = phi i64 [ 0, %63 ], [ 0, %47 ], [ 1, %53 ], [ 4, %55 ], [ 5, %57 ], [ 2, %59 ], [ 3, %61 ]
  call void @llvm.lifetime.start.p0(i64 72, ptr nonnull %2) #13
  store i32 45, ptr %2, align 8
  call void @llvm.memset.p0.i64(ptr noundef nonnull align 8 dereferenceable(24) %17, i8 0, i64 16, i1 false)
  store i32 -1, ptr %20, align 8
  store i32 -1, ptr %21, align 4
  %65 = getelementptr inbounds nuw i8, ptr %64, i64 24
  %66 = load ptr, ptr %65, align 8
  store ptr %66, ptr %22, align 8
  %67 = getelementptr inbounds nuw i8, ptr %64, i64 56
  %68 = load i32, ptr %67, align 8
  store i32 %68, ptr %23, align 8
  %69 = getelementptr inbounds nuw i8, ptr %49, i64 8
  %70 = load i32, ptr %69, align 8
  store i32 %70, ptr %24, align 4
  store i32 1, ptr %25, align 8
  %71 = getelementptr inbounds nuw i8, ptr %49, i64 12
  %72 = load i32, ptr %71, align 4
  store i32 %72, ptr %26, align 4
  store i32 1, ptr %27, align 8
  store i32 32, ptr %18, align 8
  store i32 1, ptr %19, align 8
  %switch.gep = getelementptr inbounds nuw [6 x i32], ptr @switch.table.VULKAN_INTERNAL_TextureSubresourceTransitionToDefaultUsage, i64 0, i64 %.0.i.i
  %switch.load = load i32, ptr %switch.gep, align 4
  %switch.gep69 = getelementptr inbounds nuw [6 x i32], ptr @switch.table.VULKAN_INTERNAL_TextureSubresourceTransitionToDefaultUsage.34, i64 0, i64 %.0.i.i
  %switch.load70 = load i32, ptr %switch.gep69, align 4
  %switch.gep71 = getelementptr inbounds nuw [6 x i32], ptr @switch.table.VULKAN_INTERNAL_TextureSubresourceTransitionToDefaultUsage.35, i64 0, i64 %.0.i.i
  %switch.load72 = load i32, ptr %switch.gep71, align 4
  store i32 %switch.load, ptr %29, align 4
  store i32 %switch.load70, ptr %28, align 4
  %73 = load ptr, ptr %46, align 8
  %74 = load ptr, ptr %30, align 8
  call void %73(ptr noundef %74, i32 noundef 2048, i32 noundef %switch.load72, i32 noundef 0, i32 noundef 0, ptr noundef null, i32 noundef 0, ptr noundef null, i32 noundef 1, ptr noundef nonnull %2) #13
  call void @llvm.lifetime.end.p0(i64 72, ptr nonnull %2) #13
  %indvars.iv.next.i = add nuw nsw i64 %indvars.iv.i, 1
  %75 = load i32, ptr %42, align 4
  %76 = zext i32 %75 to i64
  %77 = icmp samesign ult i64 %indvars.iv.next.i, %76
  br i1 %77, label %47, label %VULKAN_INTERNAL_TextureTransitionToDefaultUsage.exit, !llvm.loop !63

VULKAN_INTERNAL_TextureTransitionToDefaultUsage.exit: ; preds = %VULKAN_INTERNAL_DefaultTextureUsageMode.exit.i, %41
  store ptr null, ptr %39, align 8
  br label %78

78:                                               ; preds = %38, %VULKAN_INTERNAL_TextureTransitionToDefaultUsage.exit
  %indvars.iv.next62 = add nuw nsw i64 %indvars.iv61, 1
  %exitcond64.not = icmp eq i64 %indvars.iv.next62, 8
  br i1 %exitcond64.not, label %.preheader, label %38, !llvm.loop !69

79:                                               ; preds = %.preheader, %84
  %indvars.iv65 = phi i64 [ 0, %.preheader ], [ %indvars.iv.next66, %84 ]
  %80 = getelementptr inbounds nuw [8 x ptr], ptr %37, i64 0, i64 %indvars.iv65
  %81 = load ptr, ptr %80, align 8
  %.not = icmp eq ptr %81, null
  br i1 %.not, label %84, label %82

82:                                               ; preds = %79
  %83 = load ptr, ptr %15, align 8
  call fastcc void @VULKAN_INTERNAL_BufferTransitionToDefaultUsage(ptr noundef %83, ptr noundef nonnull %0, i32 noundef 6, ptr noundef nonnull %81)
  store ptr null, ptr %80, align 8
  br label %84

84:                                               ; preds = %79, %82
  %indvars.iv.next66 = add nuw nsw i64 %indvars.iv65, 1
  %exitcond68.not = icmp eq i64 %indvars.iv.next66, 8
  br i1 %exitcond68.not, label %85, label %79, !llvm.loop !70

85:                                               ; preds = %84
  %86 = getelementptr inbounds nuw i8, ptr %0, i64 1616
  %87 = getelementptr inbounds nuw i8, ptr %0, i64 200
  store ptr null, ptr %87, align 8
  %88 = getelementptr inbounds nuw i8, ptr %0, i64 424
  call void @llvm.memset.p0.i64(ptr noundef nonnull align 8 dereferenceable(24) %88, i8 0, i64 24, i1 false)
  call void @llvm.memset.p0.i64(ptr noundef nonnull align 8 dereferenceable(256) %86, i8 0, i64 256, i1 false)
  ret void
}